target datalayout = "e-m:e-p270:32:32-p271:32:32-p272:64:64-i64:64-i128:128-f80:128-n8:16:32:64-S128"
target triple = "x86_64-unknown-linux-gnu"

%"class.qe::pred_abs" = type { ptr, %class.vector, %class.ref_vector, %class.svector, %class.obj_map, %class.obj_map.2, %class.obj_map.2, %class.obj_map, %class.ref_vector, %class.ref, %class.ptr_vector, %class.obj_map.7, %class.obj_map.12 }
%class.vector = type { ptr }
%class.svector = type { %class.vector.1 }
%class.vector.1 = type { ptr }
%class.obj_map.2 = type { %class.core_hashtable.3 }
%class.core_hashtable.3 = type <{ ptr, i32, i32, i32, [4 x i8] }>
%class.obj_map = type { %class.core_hashtable }
%class.core_hashtable = type <{ ptr, i32, i32, i32, [4 x i8] }>
%class.ref_vector = type { %class.ref_vector_core }
%class.ref_vector_core = type { %class.ref_manager_wrapper, %class.ptr_vector }
%class.ref_manager_wrapper = type { ptr }
%class.ref = type { ptr }
%class.ptr_vector = type { %class.vector.0 }
%class.vector.0 = type { ptr }
%class.obj_map.7 = type { %class.core_hashtable.8 }
%class.core_hashtable.8 = type <{ ptr, i32, i32, i32, [4 x i8] }>
%class.obj_map.12 = type { %class.core_hashtable.13 }
%class.core_hashtable.13 = type <{ ptr, i32, i32, i32, [4 x i8] }>
%class.ref_vector.50 = type { %class.ref_vector_core.51 }
%class.ref_vector_core.51 = type { %class.ref_manager_wrapper.52, %class.ptr_vector.53 }
%class.ref_manager_wrapper.52 = type { ptr }
%class.ptr_vector.53 = type { %class.vector.54 }
%class.vector.54 = type { ptr }
%class.params_ref = type { ptr }
%class.obj_ref = type { ptr, ptr }
%"class.qe::qsat" = type { %class.tactic.base, ptr, %class.params_ref, %"struct.qe::qsat::stats", %class.statistics, %"class.qe::mbproj", %"class.qe::kernel", %"class.qe::kernel", %"class.qe::pred_abs", %class.ref_vector, %class.ref_vector, %class.vector, i32, %class.ref.82, i32, %class.ref_vector.50, %class.ref_vector.50, ptr, ptr, i8, %class.ref.82, %class.obj_ref, %class.inf_eps_rational }
%class.tactic.base = type <{ %"class.user_propagator::core", i32 }>
%"class.user_propagator::core" = type { ptr }
%"struct.qe::qsat::stats" = type { i32 }
%class.statistics = type { %class.svector.77, %class.svector.79 }
%class.svector.77 = type { %class.vector.78 }
%class.vector.78 = type { ptr }
%class.svector.79 = type { %class.vector.80 }
%class.vector.80 = type { ptr }
%"class.qe::mbproj" = type { ptr }
%"class.qe::kernel" = type { ptr, %class.params_ref, %class.ref.81, %class.obj_ref }
%class.ref.81 = type { ptr }
%class.ref.82 = type { ptr }
%class.inf_eps_rational = type { %class.rational, %class.inf_rational }
%class.rational = type { %class.mpq }
%class.mpq = type { %class.mpz, %class.mpz }
%class.mpz = type { i32, i8, ptr }
%class.inf_rational = type { %class.rational, %class.rational }
%"class.qe::qmax" = type { ptr }
%"struct.qe::qmax::imp" = type { %"class.qe::qsat" }

; Function Attrs: mustprogress nounwind uwtable
define linkonce_odr hidden void @_ZN2qe4qmax3impD2Ev(ptr noundef nonnull align 8 dereferenceable(600) %this) unnamed_addr #5 comdat align 2 {
entry:
  %this.addr = alloca ptr, align 8
  store ptr %this, ptr %this.addr, align 8
  %this1 = load ptr, ptr %this.addr, align 8
  %m_qsat = getelementptr inbounds %"struct.qe::qmax::imp", ptr %this1, i32 0, i32 0
  call void @_ZN2qe4qsatD2Ev(ptr noundef nonnull align 8 dereferenceable(600) %m_qsat) #3
  ret void
}

; Function Attrs: mustprogress uwtable
define linkonce_odr hidden void @_Z7deallocIN2qe4qmax3impEEvPT_(ptr noundef %ptr) #4 comdat {
entry:
  %ptr.addr = alloca ptr, align 8
  store ptr %ptr, ptr %ptr.addr, align 8
  %0 = load ptr, ptr %ptr.addr, align 8
  %cmp = icmp eq ptr %0, null
  br i1 %cmp, label %if.then, label %if.end

if.then:                                          ; preds = %entry
  br label %return

if.end:                                           ; preds = %entry
  %1 = load ptr, ptr %ptr.addr, align 8
  call void @_ZN2qe4qmax3impD2Ev(ptr noundef nonnull align 8 dereferenceable(600) %1) #3
  %2 = load ptr, ptr %ptr.addr, align 8
  call void @_ZN6memory10deallocateEPv(ptr noundef %2)
  br label %return

return:                                           ; preds = %if.end, %if.then
  ret void
}

; Function Attrs: mustprogress nounwind uwtable
define hidden void @_ZN2qe4qmaxD2Ev(ptr noundef nonnull align 8 dereferenceable(8) %this) unnamed_addr #5 align 2 personality ptr @__gxx_personality_v0 {
entry:
  %this.addr = alloca ptr, align 8
  store ptr %this, ptr %this.addr, align 8
  %this1 = load ptr, ptr %this.addr, align 8
  %m_imp = getelementptr inbounds %"class.qe::qmax", ptr %this1, i32 0, i32 0
  %0 = load ptr, ptr %m_imp, align 8
  invoke void @_Z7deallocIN2qe4qmax3impEEvPT_(ptr noundef %0)
          to label %invoke.cont unwind label %terminate.lpad

invoke.cont:                                      ; preds = %entry
  ret void

terminate.lpad:                                   ; preds = %entry
  %1 = landingpad { ptr, i32 }
          catch ptr null
  %2 = extractvalue { ptr, i32 } %1, 0
  call void @__clang_call_terminate(ptr %2) #14
  unreachable
}